; Function Attrs: mustprogress nofree norecurse nosync nounwind memory(readwrite, inaccessiblemem: none) uwtable
define hidden void @_ZN5ceres8internal7Program34CopyParameterBlockStateToUserStateEv(ptr noundef nonnull readonly align 8 captures(none) dereferenceable(56) %0) local_unnamed_addr #7 align 2 {
  %2 = load ptr, ptr %0, align 8, !tbaa !19
  %3 = getelementptr inbounds nuw i8, ptr %0, i64 8
  %4 = load ptr, ptr %3, align 8, !tbaa !19
  %.not8 = icmp eq ptr %2, %4
  br i1 %.not8, label %._crit_edge, label %.lr.ph

._crit_edge:                                      ; preds = %_ZNK5ceres8internal14ParameterBlock8GetStateEPd.exit, %1
  ret void

.lr.ph:                                           ; preds = %1, %_ZNK5ceres8internal14ParameterBlock8GetStateEPd.exit
  %.sroa.05.09 = phi ptr [ %14, %_ZNK5ceres8internal14ParameterBlock8GetStateEPd.exit ], [ %2, %1 ]
  %5 = load ptr, ptr %.sroa.05.09, align 8, !tbaa !20
  %6 = load ptr, ptr %5, align 8, !tbaa !51
  %7 = getelementptr inbounds nuw i8, ptr %5, i64 24
  %8 = load ptr, ptr %7, align 8, !tbaa !50
  %.not.i = icmp eq ptr %6, %8
  br i1 %.not.i, label %_ZNK5ceres8internal14ParameterBlock8GetStateEPd.exit, label %9

9:                                                ; preds = %.lr.ph
  %10 = getelementptr inbounds nuw i8, ptr %5, i64 8
  %11 = load i32, ptr %10, align 8, !tbaa !44
  %.not.i.i.i.i.i.i = icmp eq i32 %11, 0
  br i1 %.not.i.i.i.i.i.i, label %_ZNK5ceres8internal14ParameterBlock8GetStateEPd.exit, label %12

12:                                               ; preds = %9
  %13 = sext i32 %11 to i64
  %.idx.i = shl nsw i64 %13, 3
  tail call void @llvm.memmove.p0.p0.i64(ptr align 8 %6, ptr align 8 %8, i64 %.idx.i, i1 false)
  br label %_ZNK5ceres8internal14ParameterBlock8GetStateEPd.exit

_ZNK5ceres8internal14ParameterBlock8GetStateEPd.exit: ; preds = %.lr.ph, %9, %12
  %14 = getelementptr inbounds nuw i8, ptr %.sroa.05.09, i64 8
  %.not = icmp eq ptr %14, %4
  br i1 %.not, label %._crit_edge, label %.lr.ph
}